target datalayout = "e-m:e-p270:32:32-p271:32:32-p272:64:64-i64:64-i128:128-f80:128-n8:16:32:64-S128"
target triple = "x86_64-pc-linux-gnu"

%"class.base::PersistentMemoryAllocator" = type { ptr, ptr, i32, i32, i8, %"struct.std::atomic.0", ptr, ptr }
%"struct.std::atomic.0" = type { %"struct.std::__atomic_base.1" }
%"struct.std::__atomic_base.1" = type { i8 }

; Function Attrs: mustprogress uwtable
define noundef i32 @_ZN4base25PersistentMemoryAllocator8AllocateEmj(ptr noundef nonnull align 8 dereferenceable(48) %0, i64 noundef %1, i32 noundef %2) #1 align 2 {
  %4 = alloca ptr, align 8
  %5 = alloca i64, align 8
  %6 = alloca i32, align 4
  %7 = alloca i32, align 4
  store ptr %0, ptr %4, align 8, !tbaa !8
  store i64 %1, ptr %5, align 8, !tbaa !45
  store i32 %2, ptr %6, align 4, !tbaa !17
  %8 = load ptr, ptr %4, align 8
  call void @llvm.lifetime.start.p0(i64 4, ptr %7) #12
  %9 = load i64, ptr %5, align 8, !tbaa !45
  %10 = load i32, ptr %6, align 4, !tbaa !17
  %11 = call noundef i32 @_ZN4base25PersistentMemoryAllocator12AllocateImplEmj(ptr noundef nonnull align 8 dereferenceable(48) %8, i64 noundef %9, i32 noundef %10)
  store i32 %11, ptr %7, align 4, !tbaa !17
  %12 = load i32, ptr %7, align 4, !tbaa !17
  %13 = icmp ne i32 %12, 0
  br i1 %13, label %14, label %27

14:                                               ; preds = %3
  %15 = getelementptr inbounds nuw %"class.base::PersistentMemoryAllocator", ptr %8, i32 0, i32 6
  %16 = load ptr, ptr %15, align 8, !tbaa !50
  %17 = icmp ne ptr %16, null
  br i1 %17, label %18, label %26

18:                                               ; preds = %14
  %19 = getelementptr inbounds nuw %"class.base::PersistentMemoryAllocator", ptr %8, i32 0, i32 6
  %20 = load ptr, ptr %19, align 8, !tbaa !50
  %21 = load i64, ptr %5, align 8, !tbaa !45
  %22 = trunc i64 %21 to i32
  %23 = load ptr, ptr %20, align 8, !tbaa !47
  %24 = getelementptr inbounds ptr, ptr %23, i64 5
  %25 = load ptr, ptr %24, align 8
  call void %25(ptr noundef nonnull align 8 dereferenceable(44) %20, i32 noundef %22)
  br label %26

26:                                               ; preds = %18, %14
  br label %38

27:                                               ; preds = %3
  %28 = getelementptr inbounds nuw %"class.base::PersistentMemoryAllocator", ptr %8, i32 0, i32 6
  %29 = load ptr, ptr %28, align 8, !tbaa !50
  %30 = icmp ne ptr %29, null
  br i1 %30, label %31, label %37

31:                                               ; preds = %27
  %32 = getelementptr inbounds nuw %"class.base::PersistentMemoryAllocator", ptr %8, i32 0, i32 6
  %33 = load ptr, ptr %32, align 8, !tbaa !50
  %34 = load ptr, ptr %33, align 8, !tbaa !47
  %35 = getelementptr inbounds ptr, ptr %34, i64 5
  %36 = load ptr, ptr %35, align 8
  call void %36(ptr noundef nonnull align 8 dereferenceable(44) %33, i32 noundef 0)
  br label %37

37:                                               ; preds = %31, %27
  br label %38

38:                                               ; preds = %37, %26
  %39 = load i32, ptr %7, align 4, !tbaa !17
  call void @llvm.lifetime.end.p0(i64 4, ptr %7) #12
  ret i32 %39
}