; Function Attrs: mustprogress uwtable
define noundef range(i32 56, 1) i32 @_ZN4base25PersistentMemoryAllocator8AllocateEmj(ptr noundef nonnull align 8 captures(none) dereferenceable(48) %0, i64 noundef %1, i32 noundef %2) local_unnamed_addr #3 align 2 {
  %4 = tail call noundef i32 @_ZN4base25PersistentMemoryAllocator12AllocateImplEmj(ptr noundef nonnull align 8 dereferenceable(48) %0, i64 noundef %1, i32 noundef %2)
  %.not = icmp eq i32 %4, 0
  %5 = getelementptr inbounds nuw i8, ptr %0, i64 32
  %6 = load ptr, ptr %5, align 8, !tbaa !46
  %.not6 = icmp eq ptr %6, null
  br i1 %.not, label %10, label %7

7:                                                ; preds = %3
  br i1 %.not6, label %14, label %8

8:                                                ; preds = %7
  %9 = trunc i64 %1 to i32
  br label %.sink.split

10:                                               ; preds = %3
  br i1 %.not6, label %14, label %.sink.split

.sink.split:                                      ; preds = %10, %8
  %.sink = phi i32 [ %9, %8 ], [ 0, %10 ]
  %11 = load ptr, ptr %6, align 8, !tbaa !30
  %12 = getelementptr inbounds nuw i8, ptr %11, i64 40
  %13 = load ptr, ptr %12, align 8
  tail call void %13(ptr noundef nonnull align 8 dereferenceable(44) %6, i32 noundef %.sink)
  br label %14

14:                                               ; preds = %.sink.split, %10, %7
  ret i32 %4
}